0001                         * MINI-BUG
0002                         * COPYWRITE 1973, MOTOROLA INC
0003                         * REV 004 (USED WITH MIKBUG)
0004                         
0005 8004                    ACIACS EQU    $8004   ACIA CONTROL/STATUS
0006 8005                    ACIADA EQU    $8005
0007 0003                    ARESET EQU    %00000011     Written to ACIA for reset
0008 0015                    ACONF  EQU    %00010101     No Rx/Tx IRQ, 8n1 UART @ 31250 baud (16x clk divisor + external 2x)
0009                         
0010 8000                    PIACA  EQU    $8000
0011 8001                    PIACB  EQU    $8001
0012 8002                    PIADA  EQU    $8002
0013 8003                    PIADB  EQU    $8003
0014                         *      
0015 0000                           ORG    $0000
0016 0000 43 4f 52 4e 70 75         FCC    "CORNputer CMON online"     ; Remove if not creating disk image for simulator
     74 65 72 20 43 4d
     4f 4e 20 6f 6e 6c
     69 6e 65
0017                         
0018 1000                           ORG    $1000
0019 1000                           RMB    4096
0020 2000                    STACK  RMB    1        STACK POINTER
0021                         * REGISTERS FOR GO
0022 2001                           RMB    1        CONDITION CODES
0023 2002                           RMB    1        B ACCUMULATOR
0024 2003                           RMB    1        A
0025 2004                           RMB    1        X-HIGH
0026 2005                           RMB    1        X-LOW
0027 2006                           RMB    1        P-HIGH
0028 2007                           RMB    1        P-LOW
0029 2008                    SP     RMB    1        S-HIGH
0030 2009                           RMB    1        S-LOW
0031                         * END REGISTERS FOR GO
0032 200a                    CKSM   RMB    1        CHECKSUM
0033 200b                    BYTECT RMB    1        BYTE COUNT
0034 200c                    XHI    RMB    1        XREG HIGH
0035 200d                    XLOW   RMB    1        XREG LOW
0036                         * Pointers used for printing a string
0037 200e                    STRS   RMB    2        Pointer to start of string (16 bit)
0038 2010                    STRE   RMB    2        Pointer to end of string (16 bit)
0039 2012                    IOV    RMB    2        IO INTERRUPT POINTER
0040 2014                    BEGA   RMB    2        BEGINING ADDR PRINT/PUNCH
0041 2016                    ENDA   RMB    2        ENDING ADDR PRINT/PUNCH
0042 2018                    NIO    RMB    2        NMI INTERRUPT POINTER
0043 201a                    TEMP   RMB    1        CHAR COUNT (INADDR)
0044 201b                    TW     RMB    2        TEMP/
0045 201d                    MCONT  RMB    1        TEMP
0046 201e                    XTEMP  RMB    2        X-REG TEMP STORAGE
0047                         
0048                         * Begin EEPROM/code space
0049 e000                           ORG    $E000
0050                         * INPUT ONE CHAR INTO A-REGISTER
0051 e000 b6 80 04           INCH   LDAA  ACIACS
0052 e003 47                        ASRA
0053 e004 24 fa                     BCC    INCH     RECEIVE NOT READY
0054 e006 b6 80 05                  LDAA  ACIADA   INPUT CHARACTER
0055 e009 84 7f                     ANDA  #$7F     RESET PARITY BIT
0056 e00b 81 7f                     CMPA  #$7F
0057 e00d 27 f1                     BEQ    INCH     RUBOUT IGNORE
0058 e00f 7e e0 a9                  JMP    OUTCH    ECHO CHAR
0059                         
0060                         * INPUT HEX CHAR
0061 e012 8d ec              INHEX  BSR    INCH
0062 e014 81 30                     CMPA  #$30
0063 e016 2b 4d                     BMI    C1       NOT HEX
0064 e018 81 39                     CMPA  #$39
0065 e01a 2f 0a                     BLE    IN1HG
0066 e01c 81 41                     CMPA  #$41
0067 e01e 2b 45                     BMI    C1       NOT HEX
0068 e020 81 46                     CMPA  #$46
0069 e022 2e 41                     BGT    C1       NOT HEX
0070 e024 80 07                     SUBA  #7
0071 e026 39                 IN1HG  RTS
0072                         
0073 e027 86 11              LOAD   LDAA  #@21
0074 e029 8d 7e                     BSR    OUTCH
0075                         
0076 e02b 8d d3              LOAD3  BSR    INCH
0077 e02d 81 53                     CMPA  #'S
0078 e02f 26 fa                     BNE    LOAD3    1ST CHAR NOT (S)
0079 e031 8d cd                     BSR    INCH
0080 e033 81 39                     CMPA  #'9
0081 e035 27 25                     BEQ    LOAD21
0082 e037 81 31                     CMPA  #'1
0083 e039 26 f0                     BNE    LOAD3    2ND CHAR NOT (1)
0084 e03b 7f 20 0a                  CLR    CKSM     ZERO CHECKSUM
0085 e03e 8d 36                     BSR    BYTE     READ BYTE
0086 e040 80 02                     SUBA  #2
0087 e042 b7 20 0b                  STAA  BYTECT   BYTE COUNT
0088                         * BUILD ADDRESS
0089 e045 8d 21                     BSR    BADDR
0090                         * STORE DATA
0091 e047 8d 2d              LOAD11 BSR    BYTE
0092 e049 7a 20 0b                  DEC    BYTECT
0093 e04c 27 05                     BEQ    LOAD15   ZERO BYTE COUNT
0094 e04e a7 00                     STAA  0,X        STORE DATA
0095 e050 08                        INX
0096 e051 20 f4                     BRA    LOAD11
0097                         
0098 e053 7c 20 0a           LOAD15 INC    CKSM
0099 e056 27 d3                     BEQ    LOAD3
0100 e058 86 3f              LOAD19 LDAA  #'?      PRINT QUESTION MARK
0101 e05a 8d 4d                     BSR    OUTCH
0102 e05c 86 b1              LOAD21 LDAA  #$B1     TURN READER OFF
0103 e05e b7 80 04                  STAA  ACIACS
0104 e061 86 13                     LDAA  #@23
0105 e063 8d 44                     BSR    OUTCH
0106 e065 7e e0 e8           C1     JMP    CONTRL
0107                         
0108                         * BUILD ADDRESS
0109 e068 8d 0c              BADDR  BSR    BYTE     READ 2 FRAMES
0110 e06a b7 20 0c                  STAA  XHI
0111 e06d 8d 07                     BSR    BYTE
0112 e06f b7 20 0d                  STAA  XLOW
0113 e072 fe 20 0c                  LDX    XHI      (X) ADDRESS WE BUILT
0114 e075 39                        RTS
0115                         
0116                         * INPUT BYTE (TWO FRAMES)
0117 e076 8d 9a              BYTE   BSR    INHEX    GET HEX CHAR
0118 e078 48                        ASLA
0119 e079 48                        ASLA
0120 e07a 48                        ASLA
0121 e07b 48                        ASLA
0122 e07c 16                        TAB
0123 e07d 8d 93                     BSR    INHEX
0124 e07f 84 0f                     ANDA  #$0F     MASK TO 4 BITS
0125 e081 1b                        ABA
0126 e082 16                        TAB
0127 e083 fb 20 0a                  ADDB  CKSM
0128 e086 f7 20 0a                  STAB  CKSM
0129 e089 39                        RTS
0130                         
0131                         * CHANGE MEMORY (M AAAA DD NN)
0132 e08a 8d dc              CHANGE BSR    BADDR    BUILD ADDRESS
0133 e08c 8d 34                     BSR    OUTS     PRINT SPACE
0134 e08e 8d 30                     BSR    OUT2HS
0135 e090 8d e4                     BSR    BYTE
0136 e092 09                        DEX
0137 e093 a7 00                     STAA 0,X
0138 e095 a1 00                     CMPA 0,X
0139 e097 26 bf                     BNE    LOAD19   MEMORY DID NOT CHANGE
0140 e099 20 4d                     BRA    CONTRL
0141                         
0142 e09b 44                 OUTHL  LSRA           OUT HEX LEFT BCD DIGIT
0143 e09c 44                        LSRA
0144 e09d 44                        LSRA
0145 e09e 44                        LSRA
0146                         
0147 e09f 84 0f              OUTHR  ANDA  #$F      OUT HEX RIGHT BCD DIGIT
0148 e0a1 8b 30                     ADDA  #$30
0149 e0a3 81 39                     CMPA  #$39
0150 e0a5 23 02                     BLS    OUTCH
0151 e0a7 8b 07                     ADDA  #$7
0152                         
0153                         * OUTPUT ONE CHAR
0154 e0a9 37                 OUTCH  PSHB           SAVE B-REG
0155 e0aa f6 80 04           OUTC1  LDAB  ACIACS
0156 e0ad 57                        ASRB
0157 e0ae 57                        ASRB
0158 e0af 24 f9                     BCC    OUTC1    XMIT NOT READY
0159 e0b1 b7 80 05                  STAA  ACIADA   OUTPUT CHARACTER
0160 e0b4 33                        PULB
0161 e0b5 39                        RTS
0162                         
0163 e0b6 a6 00              OUT2H  LDAA  0,X      OUTPUT 2 HEX CHAR
0164 e0b8 8d e1                     BSR    OUTHL    OUT LEFT HEX CHAR
0165 e0ba a6 00                     LDAA  0,X
0166 e0bc 8d e1                     BSR    OUTHR    OUT RIGHT HEX VHAR
0167 e0be 08                        INX
0168 e0bf 39                        RTS
0169                         
0170 e0c0 8d f4              OUT2HS BSR    OUT2H    OUTPUT 2 HEX CHAR + SPACE
0171 e0c2 86 20              OUTS   LDAA  #$20     SPACE
0172 e0c4 20 e3                     BRA    OUTCH    (BSR & RTS)
0173                         
0174 e0c6 86 07              OUTIV  LDAA   #$07     Bell char
0175 e0c8 8d df                     BSR    OUTCH
0176 e0ca 86 3f                     LDAA   #'?      Question mark
0177 e0cc 8d db                     BSR    OUTCH
0178 e0ce 86 08                     LDAA   #$08     Backspace
0179 e0d0 20 d7                     BRA    OUTCH    (BSR & RTS)
0180                         
0181 e0d2 86 0d              OUTNL  LDAA   #$0D
0182 e0d4 8d d3                     BSR    OUTCH
0183 e0d6 86 0a                     LDAA   #$0A
0184 e0d8 20 cf                     BRA    OUTCH
0185                              
0186                         * PRINT CONTENTS OF STACK
0187 e0da 30                 PRINT  TSX
0188 e0db ff 20 08                  STX    SP       SAVE STACK POINTER
0189 e0de c6 09                     LDAB  #9
0190 e0e0 8d de              PRINT2 BSR    OUT2HS   OUT 2 HEX & SPCACE
0191 e0e2 5a                        DECB
0192 e0e3 26 fb                     BNE    PRINT2
0193 e0e5 7e e0 e8                  JMP    CONTRL
0194                         
0195 e0e8 8e 20 00           CONTRL LDS    #STACK   SET STACK POINTER
0196 e0eb 86 0d                     LDAA   #$0d     CR
0197 e0ed 8d ba                     BSR    OUTCH
0198 e0ef 86 0a                     LDAA   #$0a     LF
0199 e0f1 8d b6                     BSR    OUTCH    
0200 e0f3 86 3e                     LDAA   #'>       > char
0201 e0f5 8d b2                     BSR    OUTCH         
0202 e0f7 8d c9                     BSR    OUTS
0203                         
0204 e0f9 bd e0 00                  JSR    INCH     READ CHARACTER
0205 e0fc 16                        TAB
0206 e0fd 8d c3                     BSR    OUTS     PRINT SPACE
0207 e0ff c1 4c                     CMPB  #'L
0208 e101 26 03                     BNE    *+5
0209 e103 7e e0 27                  JMP    LOAD
0210 e106 c1 4d                     CMPB  #'M
0211 e108 27 80                     BEQ    CHANGE
0212 e10a c1 52                     CMPB  #'R
0213 e10c 27 cc                     BEQ    PRINT    STACK
0214 e10e c1 41                     CMPB  #'A
0215 e110 27 24                     BEQ    OUTMBS
0216 e112 c1 50                     CMPB  #'P
0217 e114 27 49                     BEQ    PUNCH
0218 e116 c1 3f                     CMPB  #'?
0219 e118 26 03                     BNE    CO1
0220 e11a 7e e2 04                  JMP   CMDHELP
0221 e11d c1 4f              CO1    CMPB  #'O
0222 e11f 26 03                     BNE   CO2
0223 e121 7e e1 c9                  JMP   PIACMD
0224 e124 c1 47              CO2    CMPB  #'G
0225 e126 26 c0                     BNE    CONTRL
0226 e128 3b                        RTI             GO
0227                         
0228 e129 a6 00              OUTSTR LDAA   0,X
0229 e12b 81 00                     CMPA   #0     NULL byte terminates string
0230 e12d 27 06                     BEQ    OSDONE
0231 e12f bd e0 a9                  JSR    OUTCH
0232 e132 08                        INX
0233 e133 20 f4                     BRA    OUTSTR
0234 e135 39                 OSDONE RTS
0235                         
0236 e136 ce e2 22           OUTMBS LDX    #ASCII_FRACTAL
0237 e139 8d ee                     BSR    OUTSTR
0238 e13b 7e e0 e8                  JMP    CONTRL
0239                         
0240                         * ENTER POWER ON SEQUENCE
0241 e13e                    START  EQU    *
0242 e13e 8e 20 00                  LDS    #STACK   SET STACK POINTER
0243 e141 86 03                     LDAA  #ARESET     Reset ACIA
0244 e143 b7 80 04                  STAA  ACIACS
0245 e146 01                        NOP
0246 e147 86 15                     LDAA  #ACONF      Set up ACIA
0247 e149 b7 80 04                  STAA  ACIACS
0248                         * Print bootmessage
0249 e14c ce e6 53                  LDX    #BOOT_MSG
0250 e14f 8d d8                     BSR    OUTSTR
0251 e151 7e e0 e8                  JMP    CONTRL
0252                         
0253                         * PRINT DATA POINTED AT BY X-REG
0254 e154 bd e0 a9           PDATA2 JSR    OUTCH
0255 e157 08                        INX
0256 e158 a6 00              PDATA1 LDAA   0,X
0257 e15a 81 04                     CMPA   #4
0258 e15c 26 f6                     BNE    PDATA2
0259 e15e 39                        RTS             STOP ON EOT
0260                         
0261 e15f                    PUNCH  EQU    *
0262                         
0263 e15f 86 12                     LDAA   #$12     TURN TTY PUNCH ON
0264 e161 bd e0 a9                  JSR    OUTCH    OUT CHAR
0265                         
0266 e164 fe 20 14                  LDX    BEGA
0267 e167 ff 20 1b                  STX    TW       TEMP BEGINING ADDRESS
0268 e16a b6 20 17           PUN11  LDAA   ENDA+1
0269 e16d b0 20 1c                  SUBA   TW+1
0270 e170 f6 20 16                  LDAB   ENDA
0271 e173 f2 20 1b                  SBCB   TW
0272 e176 26 04                     BNE    PUN22
0273 e178 81 10                     CMPA   #16
0274 e17a 25 02                     BCS    PUN23
0275 e17c 86 0f              PUN22  LDAA   #15
0276 e17e 8b 04              PUN23  ADDA   #4
0277 e180 b7 20 1d                  STAA   MCONT    FRAME COUNT THIS RECORD
0278 e183 80 03                     SUBA   #3
0279 e185 b7 20 1a                  STAA   TEMP     BYTE COUNT THIS RECORD
0280                         *     PUNCH C/R,L/F,NULL,S,1
0281 e188 ce e2 19                  LDX    #MTAPE1
0282 e18b bd e1 58                  JSR    PDATA1
0283 e18e 5f                        CLRB            ZERO CHECKSUM
0284                         *     PUNCH FRAME COUNT
0285 e18f ce 20 1d                  LDX    #MCONT
0286 e192 8d 26                     BSR    PUNT2    PUNCH 2 HEX CHAR
0287                         *     PUNCH ADDRESS
0288 e194 ce 20 1b                  LDX    #TW
0289 e197 8d 21                     BSR    PUNT2
0290 e199 8d 1f                     BSR    PUNT2
0291                         *     PUNCH DATA
0292 e19b fe 20 1b                  LDX    TW
0293 e19e 8d 1a              PUN32  BSR    PUNT2    PUNCH ONE BYTE (2 FRAMES)
0294 e1a0 7a 20 1a                  DEC    TEMP     DEC BYTE COUNT
0295 e1a3 26 f9                     BNE    PUN32
0296 e1a5 ff 20 1b                  STX    TW
0297 e1a8 53                        COMB 
0298 e1a9 37                        PSHB 
0299 e1aa 30                        TSX
0300 e1ab 8d 0d                     BSR    PUNT2    PUNCH CHECKSUM
0301 e1ad 33                        PULB 
0302 e1ae fe 20 1b                  LDX    TW
0303 e1b1 09                        DEX
0304 e1b2 bc 20 16                  CPX    ENDA
0305 e1b5 26 b3                     BNE    PUN11
0306 e1b7 7e e0 e8                  JMP    CONTRL       
0307                         
0308                         *     PUNCH 2 HEX CHAR, UPDATE CHECKSUM
0309 e1ba eb 00              PUNT2  ADDB   0,X      UPDATE CHECKSUM
0310 e1bc 7e e0 b6                  JMP    OUT2H    OUTPUT TWO HEX CHAR AND RTS
0311                         
0312 e1bf 13                 MCLOFF FCB    $13      READER OFF
0313 e1c0 0d 0a 14 00 00 00  MCL    FCB    $D,$A,$14,0,0,0,'*,4   C/R,L/F,PUNCH
     2a 04
0314 e1c8 39                        RTS
0315                         
0316 e1c9 bd e0 00           PIACMD JSR    INCH
0317 e1cc 16                        TAB
0318 e1cd bd e0 c2                  JSR    OUTS          TX space
0319 e1d0 c1 41                     CMPB   #'A           Output to port A
0320 e1d2 27 14                     BEQ    PCMA          
0321 e1d4 c1 42                     CMPB   #'B           Output to port B
0322 e1d6 27 18                     BEQ    PCMB
0323 e1d8 c1 78                     CMPB   #'x           Both ports (A & B)
0324 e1da 27 1c                     BEQ    PCMX
0325 e1dc c1 24                     CMPB   #$24          Cancel (^X)
0326 e1de 27 05                     BEQ    PCAN
0327 e1e0 bd e0 c6                  JSR    OUTIV         Unknown input
0328 e1e3 20 e4                     BRA    PIACMD
0329                         
0330 e1e5 7e e2 0d           PCAN   JMP    CMDCANCEL
0331                         
0332 e1e8 bd e0 76           PCMA   JSR    BYTE
0333 e1eb b7 80 02                  STAA   PIADA
0334 e1ee 20 11                     BRA    PCDONE
0335 e1f0 bd e0 76           PCMB   JSR    BYTE
0336 e1f3 b7 80 02                  STAA   PIADA
0337 e1f6 20 09                     BRA    PCDONE
0338 e1f8 bd e0 76           PCMX   JSR    BYTE
0339 e1fb b7 80 02                  STAA   PIADA
0340 e1fe b7 80 03                  STAA   PIADB
0341 e201 7e e0 e8           PCDONE JMP    CONTRL
0342                         
0343                         CMDHELP
0344 e204 ce e6 94                  LDX    #HELP_STR
0345 e207 bd e1 29                  JSR    OUTSTR
0346 e20a 7e e0 e8                  JMP    CONTRL
0347                         
0348                         CMDCANCEL
0349 e20d ce e6 7f                  LDX    #CMD_CANCEL_MSG
0350 e210 bd e1 29                  JSR    OUTSTR
0351 e213 7e e0 e8                  JMP    CONTRL
0352                         
0353 e216 7e e0 e8           CATCH  JMP    CONTRL           Capture any stray PC so they dont try to execute the ASCII art :-)
0354                         
0355 e219 0d 0a 00 00 00 00  MTAPE1 FCB    $D,$A,0,0,0,0,'S,'1,4   PUNCH FORMAT
     53 31 04
0356                         
0357                         ASCII_FRACTAL
0358 e222 20 20 20 20 20 20         FCC     "                                  "
     20 20 20 20 20 20
     20 20 20 20 20 20
     20 20 20 20 20 20
     20 20 20 20 20 20
     20 20 20 20
0359 e244 0d 0a                     FCB    $0D,$0A  CRLF
0360 e246 20 20 20 20 20 20         FCC     "                                  \\"
     20 20 20 20 20 20
     20 20 20 20 20 20
     20 20 20 20 20 20
     20 20 20 20 20 20
     20 20 20 20 5c 5c
0361 e26a 0d 0a                     FCB    $0D,$0A  CRLF
0362 e26c 20 20 20 20 20 20         FCC     "                                  `\,/"
     20 20 20 20 20 20
     20 20 20 20 20 20
     20 20 20 20 20 20
     20 20 20 20 20 20
     20 20 20 20 60 5c
     2c 2f
0363 e292 0d 0a                     FCB    $0D,$0A  CRLF
0364 e294 20 20 20 20 20 20         FCC     "                                  .-'-."
     20 20 20 20 20 20
     20 20 20 20 20 20
     20 20 20 20 20 20
     20 20 20 20 20 20
     20 20 20 20 2e 2d
     27 2d 2e
0365 e2bb 0d 0a                     FCB    $0D,$0A  CRLF
0366 e2bd 20 20 20 20 20 20         FCC     "                                 '     `"
     20 20 20 20 20 20
     20 20 20 20 20 20
     20 20 20 20 20 20
     20 20 20 20 20 20
     20 20 20 27 20 20
     20 20 20 60
0367 e2e5 0d 0a                     FCB    $0D,$0A  CRLF
0368 e2e7 20 20 20 20 20 20         FCC     "                                 `.   .'"
     20 20 20 20 20 20
     20 20 20 20 20 20
     20 20 20 20 20 20
     20 20 20 20 20 20
     20 20 20 60 2e 20
     20 20 2e 27
0369 e30f 0d 0a                     FCB    $0D,$0A  CRLF
0370 e311 20 20 20 20 20 20         FCC     "                          `._  .-~     ~-.   _,'"
     20 20 20 20 20 20
     20 20 20 20 20 20
     20 20 20 20 20 20
     20 20 60 2e 5f 20
     20 2e 2d 7e 20 20
     20 20 20 7e 2d 2e
     20 20 20 5f 2c 27
0371 e341 0d 0a                     FCB    $0D,$0A  CRLF
0372 e343 20 20 20 20 20 20         FCC     "                           ( )'           '.( )"
     20 20 20 20 20 20
     20 20 20 20 20 20
     20 20 20 20 20 20
     20 20 20 28 20 29
     27 20 20 20 20 20
     20 20 20 20 20 20
     27 2e 28 20 29
0373 e372 0d 0a                     FCB    $0D,$0A  CRLF
0374 e374 20 20 20 20 20 20         FCC     "             `._    _       /               .'"
     20 20 20 20 20 20
     20 60 2e 5f 20 20
     20 20 5f 20 20 20
     20 20 20 20 2f 20
     20 20 20 20 20 20
     20 20 20 20 20 20
     20 20 2e 27
0375 e3a2 0d 0a                     FCB    $0D,$0A  CRLF
0376 e3a4 20 20 20 20 20 20         FCC     "              ( )--' `-.  .'                 ;"
     20 20 20 20 20 20
     20 20 28 20 29 2d
     2d 27 20 60 2d 2e
     20 20 2e 27 20 20
     20 20 20 20 20 20
     20 20 20 20 20 20
     20 20 20 3b
0377 e3d2 0d 0a                     FCB    $0D,$0A  CRLF
0378 e3d4 20 20 20 20 20 20         FCC     "         .    .'        '.;                  ()"
     20 20 20 2e 20 20
     20 20 2e 27 20 20
     20 20 20 20 20 20
     27 2e 3b 20 20 20
     20 20 20 20 20 20
     20 20 20 20 20 20
     20 20 20 28 29
0379 e403 0d 0a                     FCB    $0D,$0A  CRLF
0380 e405 20 20 20 20 20 20         FCC     "          `.-.` CORNELIUS '                 .'"
     20 20 20 20 60 2e
     2d 2e 60 20 43 4f
     52 4e 45 4c 49 55
     53 20 27 20 20 20
     20 20 20 20 20 20
     20 20 20 20 20 20
     20 20 2e 27
0381 e433 0d 0a                     FCB    $0D,$0A  CRLF
0382 e435 2d 2d 2d 2d 2a 2d         FCC     "----*-----;      T E C H N O L O G I E S   .'"
     2d 2d 2d 2d 3b 20
     20 20 20 20 20 54
     20 45 20 43 20 48
     20 4e 20 4f 20 4c
     20 4f 20 47 20 49
     20 45 20 53 20 20
     20 2e 27
0383 e462 0d 0a                     FCB    $0D,$0A  CRLF
0384 e464 20 20 20 20 20 20         FCC     "          .`-'.           ,                `."
     20 20 20 20 2e 60
     2d 27 2e 20 20 20
     20 20 20 20 20 20
     20 20 2c 20 20 20
     20 20 20 20 20 20
     20 20 20 20 20 20
     20 60 2e
0385 e491 0d 0a                     FCB    $0D,$0A  CRLF
0386 e493 20 20 20 20 20 20         FCC     "         '    '.        .';                  ()"
     20 20 20 27 20 20
     20 20 27 2e 20 20
     20 20 20 20 20 20
     2e 27 3b 20 20 20
     20 20 20 20 20 20
     20 20 20 20 20 20
     20 20 20 28 29
0387 e4c2 0d 0a                     FCB    $0D,$0A  CRLF
0388 e4c4 20 20 20 20 20 20         FCC     "              (_)-   .-'  `.                 ;"
     20 20 20 20 20 20
     20 20 28 5f 29 2d
     20 20 20 2e 2d 27
     20 20 60 2e 20 20
     20 20 20 20 20 20
     20 20 20 20 20 20
     20 20 20 3b
0389 e4f2 0d 0a                     FCB    $0D,$0A  CRLF
0390 e4f4 20 20 20 20 20 20         FCC     "             ,'   `-'       \               `."
     20 20 20 20 20 20
     20 2c 27 20 20 20
     60 2d 27 20 20 20
     20 20 20 20 5c 20
     20 20 20 20 20 20
     20 20 20 20 20 20
     20 20 60 2e
0391 e522 0d 0a                     FCB    $0D,$0A  CRLF
0392 e524 20 20 20 20 20 20         FCC     "                           (_).           .'(_)"
     20 20 20 20 20 20
     20 20 20 20 20 20
     20 20 20 20 20 20
     20 20 20 28 5f 29
     2e 20 20 20 20 20
     20 20 20 20 20 20
     2e 27 28 5f 29
0393 e553 0d 0a                     FCB    $0D,$0A  CRLF
0394 e555 20 20 20 20 20 20         FCC     "                          .'   '-._   _.-'    `."
     20 20 20 20 20 20
     20 20 20 20 20 20
     20 20 20 20 20 20
     20 20 2e 27 20 20
     20 27 2d 2e 5f 20
     20 20 5f 2e 2d 27
     20 20 20 20 60 2e
0395 e585 0d 0a                     FCB    $0D,$0A  CRLF
0396 e587 20 20 20 20 20 20         FCC     "                                 .'   `."
     20 20 20 20 20 20
     20 20 20 20 20 20
     20 20 20 20 20 20
     20 20 20 20 20 20
     20 20 20 2e 27 20
     20 20 60 2e
0397 e5af 0d 0a                     FCB    $0D,$0A  CRLF
0398 e5b1 20 20 20 20 20 20         FCC     "                                 '     ;"
     20 20 20 20 20 20
     20 20 20 20 20 20
     20 20 20 20 20 20
     20 20 20 20 20 20
     20 20 20 27 20 20
     20 20 20 3b
0399 e5d9 0d 0a                     FCB    $0D,$0A  CRLF
0400 e5db 20 20 20 20 20 20         FCC     "                                  `-,-'"
     20 20 20 20 20 20
     20 20 20 20 20 20
     20 20 20 20 20 20
     20 20 20 20 20 20
     20 20 20 20 60 2d
     2c 2d 27
0401 e602 0d 0a                     FCB    $0D,$0A  CRLF
0402 e604 20 20 20 20 20 20         FCC     "                                   /`\\"
     20 20 20 20 20 20
     20 20 20 20 20 20
     20 20 20 20 20 20
     20 20 20 20 20 20
     20 20 20 20 20 2f
     60 5c 5c
0403 e62b 0d 0a                     FCB    $0D,$0A  CRLF
0404 e62d 20 20 20 20 20 20         FCC     "                                 /`"
     20 20 20 20 20 20
     20 20 20 20 20 20
     20 20 20 20 20 20
     20 20 20 20 20 20
     20 20 20 2f 60
0405 e650 0d 0a                     FCB    $0D,$0A  CRLF
0406 e652 00                        FCB    $00      NULL TERMINATE
0407                         
0408                         BOOT_MSG
0409 e653 2d 2d 20 43 6f 72         FCC    "-- Cornelius Technologies --"
     6e 65 6c 69 75 73
     20 54 65 63 68 6e
     6f 6c 6f 67 69 65
     73 20 2d 2d
0410 e66f 0d 0a                     FCB    $0D,$0A  CRLF
0411 e671 43 4d 4f 4e 20 76         FCC    "CMON v1.0.2"
     31 2e 30 2e 32
0412 e67c 0d 0a                     FCB    $0D,$0A  CRLF
0413 e67e 00                        FCB    $00      NULL TERMINATE
0414                         
0415                         CMD_CANCEL_MSG
0416 e67f 0d 0a                     FCB    $0D,$0A  CRLF
0417 e681 2d 20 43 6f 6d 6d         FCC    "- Command canceled"
     61 6e 64 20 63 61
     6e 63 65 6c 65 64
0418 e693 00                        FCB    $00
0419                         
0420                         HELP_STR      
0421 e694 0d 0a                     FCB    $0D,$0A  CRLF
0422 e696 4c 20 2d 20 4c 6f         FCC    "L - Load SREC program"
     61 64 20 53 52 45
     43 20 70 72 6f 67
     72 61 6d
0423 e6ab 0d 0a                     FCB    $0D,$0A  CRLF
0424 e6ad 4d 20 78 78 78 78         FCC    "M xxxx DD nn- View/Modify memory location"
     20 44 44 20 6e 6e
     2d 20 56 69 65 77
     2f 4d 6f 64 69 66
     79 20 6d 65 6d 6f
     72 79 20 6c 6f 63
     61 74 69 6f 6e
0425 e6d6 0d 0a                     FCB    $0D,$0A  CRLF
0426 e6d8 52 20 2d 20 56 69         FCC    "R - View usercode stack/register history"
     65 77 20 75 73 65
     72 63 6f 64 65 20
     73 74 61 63 6b 2f
     72 65 67 69 73 74
     65 72 20 68 69 73
     74 6f 72 79
0427 e700 0d 0a                     FCB    $0D,$0A  CRLF
0428 e702 41 20 2d 20 4f 75         FCC    "A - Output ROM ASCII art"
     74 70 75 74 20 52
     4f 4d 20 41 53 43
     49 49 20 61 72 74
0429 e71a 0d 0a                     FCB    $0D,$0A  CRLF
0430 e71c 50 20 68 68 68 68         FCC    "P hhhh hhhh - Print memory range in SREC format"
     20 68 68 68 68 20
     2d 20 50 72 69 6e
     74 20 6d 65 6d 6f
     72 79 20 72 61 6e
     67 65 20 69 6e 20
     53 52 45 43 20 66
     6f 72 6d 61 74
0431 e74b 0d 0a                     FCB    $0D,$0A  CRLF
0432 e74d 4f 20 70 20 64 64         FCC    "O p dd - Write byte to port (A/B/x)"
     20 2d 20 57 72 69
     74 65 20 62 79 74
     65 20 74 6f 20 70
     6f 72 74 20 28 41
     2f 42 2f 78 29
0433 e770 0d 0a                     FCB    $0D,$0A  CRLF
0434 e772 3f 20 2d 20 54 68         FCC    "? - This help message"
     69 73 20 68 65 6c
     70 20 6d 65 73 73
     61 67 65
0435 e787 0d 0a                     FCB    $0D,$0A  CRLF
0436 e789 47 20 2d 20 4a 75         FCC    "G - Jump to usercode"
     6d 70 20 74 6f 20
     75 73 65 72 63 6f
     64 65
0437 e79d 0d 0a                     FCB    $0D,$0A  CRLF
0438 e79f 00                        FCB    $00      NULL TERMINATE
0439                         * ASCII art in ROM
0440                         * ROM vectors 
0441 fff8                           ORG    $FFF8
0442 fff8 e1 3e              SWIVEC FDB    START         Software interupt (triggers stack print)
0443 fffa e1 3e              IRQVEC FDB    START         Maskable (IRQ) interupt (triggers IRQ subroutine)
0444 fffc e1 3e              NMIVEC FDB    START         Non-maskable (NMI) interupt (triggers reset/bootup)
0445 fffe e1 3e              RSTVEC FDB    START         Reset event (triggers bootup)
0446                                END
ACIACS     8004
ACIADA     8005
ACONF      0015
ARESET     0003
ASCII_FRACTAL e222
BADDR      e068
BEGA       2014
BOOT_MSG   e653
BYTE       e076
BYTECT     200b
C1         e065
CATCH      e216
CHANGE     e08a
CKSM       200a
CMDCANCEL  e20d
CMDHELP    e204
CMD_CANCEL_MSG e67f
CO1        e11d
CO2        e124
CONTRL     e0e8
ENDA       2016
HELP_STR   e694
IN1HG      e026
INCH       e000
INHEX      e012
IOV        2012
IRQVEC     fffa
LOAD       e027
LOAD11     e047
LOAD15     e053
LOAD19     e058
LOAD21     e05c
LOAD3      e02b
MCL        e1c0
MCLOFF     e1bf
MCONT      201d
MTAPE1     e219
NIO        2018
NMIVEC     fffc
OSDONE     e135
OUT2H      e0b6
OUT2HS     e0c0
OUTC1      e0aa
OUTCH      e0a9
OUTHL      e09b
OUTHR      e09f
OUTIV      e0c6
OUTMBS     e136
OUTNL      e0d2
OUTS       e0c2
OUTSTR     e129
PCAN       e1e5
PCDONE     e201
PCMA       e1e8
PCMB       e1f0
PCMX       e1f8
PDATA1     e158
PDATA2     e154
PIACA      8000
PIACB      8001
PIACMD     e1c9
PIADA      8002
PIADB      8003
PRINT      e0da
PRINT2     e0e0
PUN11      e16a
PUN22      e17c
PUN23      e17e
PUN32      e19e
PUNCH      e15f
PUNT2      e1ba
RSTVEC     fffe
SP         2008
STACK      2000
START      e13e
STRE       2010
STRS       200e
SWIVEC     fff8
TEMP       201a
TW         201b
XHI        200c
XLOW       200d
XTEMP      201e
ACIACS     8004 *0005 0051 0103 0155 0244 0247 
ACIADA     8005 *0006 0054 0159 
ACONF      0015 *0008 0246 
ARESET     0003 *0007 0243 
ASCII_FRACTAL e222 *0357 0236 
BADDR      e068 *0109 0089 0132 
BEGA       2014 *0040 0266 
BOOT_MSG   e653 *0408 0249 
BYTE       e076 *0117 0085 0091 0109 0111 0135 0332 0335 0338 
BYTECT     200b *0033 0087 0092 
C1         e065 *0106 0063 0067 0069 
CATCH      e216 *0353 
CHANGE     e08a *0132 0211 
CKSM       200a *0032 0084 0098 0127 0128 
CMDCANCEL  e20d *0348 0330 
CMDHELP    e204 *0343 0220 
CMD_CANCEL_MSG e67f *0415 0349 
CO1        e11d *0221 0219 
CO2        e124 *0224 0222 
CONTRL     e0e8 *0195 0106 0140 0193 0225 0238 0251 0306 0341 0346 
                      0351 0353 
ENDA       2016 *0041 0268 0270 0304 
HELP_STR   e694 *0420 0344 
IN1HG      e026 *0071 0065 
INCH       e000 *0051 0053 0057 0061 0076 0079 0204 0316 
INHEX      e012 *0061 0117 0123 
IOV        2012 *0039 
IRQVEC     fffa *0443 
LOAD       e027 *0073 0209 
LOAD11     e047 *0091 0096 
LOAD15     e053 *0098 0093 
LOAD19     e058 *0100 0139 
LOAD21     e05c *0102 0081 
LOAD3      e02b *0076 0078 0083 0099 
MCL        e1c0 *0313 
MCLOFF     e1bf *0312 
MCONT      201d *0045 0277 0285 
MTAPE1     e219 *0355 0281 
NIO        2018 *0042 
NMIVEC     fffc *0444 
OSDONE     e135 *0234 0230 
OUT2H      e0b6 *0163 0170 0310 
OUT2HS     e0c0 *0170 0134 0190 
OUTC1      e0aa *0155 0158 
OUTCH      e0a9 *0154 0058 0074 0101 0105 0150 0172 0175 0177 0179 
                      0182 0184 0197 0199 0201 0231 0254 0264 
OUTHL      e09b *0142 0164 
OUTHR      e09f *0147 0166 
OUTIV      e0c6 *0174 0327 
OUTMBS     e136 *0236 0215 
OUTNL      e0d2 *0181 
OUTS       e0c2 *0171 0133 0202 0206 0318 
OUTSTR     e129 *0228 0233 0237 0250 0345 0350 
PCAN       e1e5 *0330 0326 
PCDONE     e201 *0341 0334 0337 
PCMA       e1e8 *0332 0320 
PCMB       e1f0 *0335 0322 
PCMX       e1f8 *0338 0324 
PDATA1     e158 *0256 0282 
PDATA2     e154 *0254 0258 
PIACA      8000 *0010 
PIACB      8001 *0011 
PIACMD     e1c9 *0316 0223 0328 
PIADA      8002 *0012 0333 0336 0339 
PIADB      8003 *0013 0340 
PRINT      e0da *0187 0213 
PRINT2     e0e0 *0190 0192 
PUN11      e16a *0268 0305 
PUN22      e17c *0275 0272 
PUN23      e17e *0276 0274 
PUN32      e19e *0293 0295 
PUNCH      e15f *0261 0217 
PUNT2      e1ba *0309 0286 0289 0290 0293 0300 
RSTVEC     fffe *0445 
SP         2008 *0029 0188 
STACK      2000 *0020 0195 0242 
START      e13e *0241 0442 0443 0444 0445 
STRE       2010 *0038 
STRS       200e *0037 
SWIVEC     fff8 *0442 
TEMP       201a *0043 0279 0294 
TW         201b *0044 0267 0269 0271 0288 0292 0296 0302 
XHI        200c *0034 0110 0113 
XLOW       200d *0035 0112 
XTEMP      201e *0046 
